#include <math.h>
#include <stdio.h>
#include <stdlib.h>
#include <string.h>


int main()
{
 int * array;
 int n,i,buffer;
 scanf("%d",&n);
 array=(int *)malloc(sizeof(int) * n);
 for (i=0;i<n;i++)
 {
  scanf("%d",(array+i));
 }
 for (i=0;i<=(n-1)/2;i++)
 {
  buffer=* (array+i);
  * (array+i)=* (array+(n-i-1));
  * (array+(n-i-1))=buffer;
 }
 int first;
 first=1;
 for (i=0;i<n;i++)
 {
  if (first)
  {
   printf("%d",* (array+i));
   first=0;
  }
  else 
  {
   printf(" %d",* (array+i));
  }
 }
 free(array);
 return 0;
}

 
