; ModuleID = '47/3901.c'
source_filename = "47/3901.c"
target datalayout = "e-m:e-p270:32:32-p271:32:32-p272:64:64-i64:64-f80:128-n8:16:32:64-S128"
target triple = "x86_64-pc-linux-gnu"

@.str = private unnamed_addr constant [3 x i8] c"%d\00", align 1
@.str.1 = private unnamed_addr constant [4 x i8] c" %d\00", align 1

; Function Attrs: noinline nounwind uwtable
define dso_local i32 @main() #0 {
  %1 = alloca i32, align 4
  %2 = alloca i32*, align 8
  %3 = alloca i32, align 4
  %4 = alloca i32, align 4
  %5 = alloca i32, align 4
  %6 = alloca i32, align 4
  store i32 0, i32* %1, align 4
  %7 = call i32 (i8*, ...) @__isoc99_scanf(i8* getelementptr inbounds ([3 x i8], [3 x i8]* @.str, i64 0, i64 0), i32* %3)
  %8 = load i32, i32* %3, align 4
  %9 = sext i32 %8 to i64
  %10 = mul i64 4, %9
  %11 = call noalias i8* @malloc(i64 %10) #3
  %12 = bitcast i8* %11 to i32*
  store i32* %12, i32** %2, align 8
  store i32 0, i32* %4, align 4
  br label %13

13:                                               ; preds = %23, %0
  %14 = load i32, i32* %4, align 4
  %15 = load i32, i32* %3, align 4
  %16 = icmp slt i32 %14, %15
  br i1 %16, label %17, label %26

17:                                               ; preds = %13
  %18 = load i32*, i32** %2, align 8
  %19 = load i32, i32* %4, align 4
  %20 = sext i32 %19 to i64
  %21 = getelementptr inbounds i32, i32* %18, i64 %20
  %22 = call i32 (i8*, ...) @__isoc99_scanf(i8* getelementptr inbounds ([3 x i8], [3 x i8]* @.str, i64 0, i64 0), i32* %21)
  br label %23

23:                                               ; preds = %17
  %24 = load i32, i32* %4, align 4
  %25 = add nsw i32 %24, 1
  store i32 %25, i32* %4, align 4
  br label %13

26:                                               ; preds = %13
  store i32 0, i32* %4, align 4
  br label %27

27:                                               ; preds = %59, %26
  %28 = load i32, i32* %4, align 4
  %29 = load i32, i32* %3, align 4
  %30 = sub nsw i32 %29, 1
  %31 = sdiv i32 %30, 2
  %32 = icmp sle i32 %28, %31
  br i1 %32, label %33, label %62

33:                                               ; preds = %27
  %34 = load i32*, i32** %2, align 8
  %35 = load i32, i32* %4, align 4
  %36 = sext i32 %35 to i64
  %37 = getelementptr inbounds i32, i32* %34, i64 %36
  %38 = load i32, i32* %37, align 4
  store i32 %38, i32* %5, align 4
  %39 = load i32*, i32** %2, align 8
  %40 = load i32, i32* %3, align 4
  %41 = load i32, i32* %4, align 4
  %42 = sub nsw i32 %40, %41
  %43 = sub nsw i32 %42, 1
  %44 = sext i32 %43 to i64
  %45 = getelementptr inbounds i32, i32* %39, i64 %44
  %46 = load i32, i32* %45, align 4
  %47 = load i32*, i32** %2, align 8
  %48 = load i32, i32* %4, align 4
  %49 = sext i32 %48 to i64
  %50 = getelementptr inbounds i32, i32* %47, i64 %49
  store i32 %46, i32* %50, align 4
  %51 = load i32, i32* %5, align 4
  %52 = load i32*, i32** %2, align 8
  %53 = load i32, i32* %3, align 4
  %54 = load i32, i32* %4, align 4
  %55 = sub nsw i32 %53, %54
  %56 = sub nsw i32 %55, 1
  %57 = sext i32 %56 to i64
  %58 = getelementptr inbounds i32, i32* %52, i64 %57
  store i32 %51, i32* %58, align 4
  br label %59

59:                                               ; preds = %33
  %60 = load i32, i32* %4, align 4
  %61 = add nsw i32 %60, 1
  store i32 %61, i32* %4, align 4
  br label %27

62:                                               ; preds = %27
  store i32 1, i32* %6, align 4
  store i32 0, i32* %4, align 4
  br label %63

63:                                               ; preds = %85, %62
  %64 = load i32, i32* %4, align 4
  %65 = load i32, i32* %3, align 4
  %66 = icmp slt i32 %64, %65
  br i1 %66, label %67, label %88

67:                                               ; preds = %63
  %68 = load i32, i32* %6, align 4
  %69 = icmp ne i32 %68, 0
  br i1 %69, label %70, label %77

70:                                               ; preds = %67
  %71 = load i32*, i32** %2, align 8
  %72 = load i32, i32* %4, align 4
  %73 = sext i32 %72 to i64
  %74 = getelementptr inbounds i32, i32* %71, i64 %73
  %75 = load i32, i32* %74, align 4
  %76 = call i32 (i8*, ...) @printf(i8* getelementptr inbounds ([3 x i8], [3 x i8]* @.str, i64 0, i64 0), i32 %75)
  store i32 0, i32* %6, align 4
  br label %84

77:                                               ; preds = %67
  %78 = load i32*, i32** %2, align 8
  %79 = load i32, i32* %4, align 4
  %80 = sext i32 %79 to i64
  %81 = getelementptr inbounds i32, i32* %78, i64 %80
  %82 = load i32, i32* %81, align 4
  %83 = call i32 (i8*, ...) @printf(i8* getelementptr inbounds ([4 x i8], [4 x i8]* @.str.1, i64 0, i64 0), i32 %82)
  br label %84

84:                                               ; preds = %77, %70
  br label %85

85:                                               ; preds = %84
  %86 = load i32, i32* %4, align 4
  %87 = add nsw i32 %86, 1
  store i32 %87, i32* %4, align 4
  br label %63

88:                                               ; preds = %63
  %89 = load i32*, i32** %2, align 8
  %90 = bitcast i32* %89 to i8*
  call void @free(i8* %90) #3
  ret i32 0
}

declare dso_local i32 @__isoc99_scanf(i8*, ...) #1

; Function Attrs: nounwind
declare dso_local noalias i8* @malloc(i64) #2

declare dso_local i32 @printf(i8*, ...) #1

; Function Attrs: nounwind
declare dso_local void @free(i8*) #2


!llvm.module.flags = !{!0}
!llvm.ident = !{!1}

!0 = !{i32 1, !"wchar_size", i32 4}
!1 = !{!"clang version 10.0.0-4ubuntu1 "}
